target datalayout = "e-m:e-p270:32:32-p271:32:32-p272:64:64-i64:64-i128:128-f80:128-n8:16:32:64-S128"
target triple = "x86_64-unknown-linux-gnu"

%"class.rocksdb::SemiStructuredUniqueIdGen" = type { i64, i64, %"struct.std::atomic", i64 }
%"struct.std::atomic" = type { %"struct.std::__atomic_base" }
%"struct.std::__atomic_base" = type { i64 }

; Function Attrs: noreturn nounwind uwtable
define linkonce_odr hidden void @__clang_call_terminate(ptr noundef %0) #8 comdat {
  %2 = call ptr @__cxa_begin_catch(ptr %0) #4
  call void @_ZSt9terminatev() #11
  unreachable
}

; Function Attrs: mustprogress nounwind uwtable
define linkonce_odr noundef i32 @_ZStanSt12memory_orderSt23__memory_order_modifier(i32 noundef %__m, i32 noundef %__mod) #2 comdat {
entry:
  %__m.addr = alloca i32, align 4
  %__mod.addr = alloca i32, align 4
  store i32 %__m, ptr %__m.addr, align 4
  store i32 %__mod, ptr %__mod.addr, align 4
  %0 = load i32, ptr %__m.addr, align 4
  %1 = load i32, ptr %__mod.addr, align 4
  %and = and i32 %0, %1
  ret i32 %and
}

; Function Attrs: mustprogress nounwind uwtable
define linkonce_odr noundef i64 @_ZNSt13__atomic_baseImEaSEm(ptr noundef nonnull align 8 dereferenceable(8) %this, i64 noundef %__i) #2 comdat align 2 personality ptr @__gxx_personality_v0 {
entry:
  %this.addr.i = alloca ptr, align 8
  %__i.addr.i = alloca i64, align 8
  %__m.addr.i = alloca i32, align 4
  %__b.i = alloca i32, align 4
  %.atomictmp.i = alloca i64, align 8
  %this.addr = alloca ptr, align 8
  %__i.addr = alloca i64, align 8
  store ptr %this, ptr %this.addr, align 8
  store i64 %__i, ptr %__i.addr, align 8
  %this1 = load ptr, ptr %this.addr, align 8
  %0 = load i64, ptr %__i.addr, align 8
  store ptr %this1, ptr %this.addr.i, align 8
  store i64 %0, ptr %__i.addr.i, align 8
  store i32 5, ptr %__m.addr.i, align 4
  %this1.i = load ptr, ptr %this.addr.i, align 8
  %1 = load i32, ptr %__m.addr.i, align 4
  %call.i = invoke noundef i32 @_ZStanSt12memory_orderSt23__memory_order_modifier(i32 noundef %1, i32 noundef 65535)
          to label %invoke.cont.i unwind label %terminate.lpad.i

invoke.cont.i:                                    ; preds = %entry
  store i32 %call.i, ptr %__b.i, align 4
  %2 = load i32, ptr %__m.addr.i, align 4
  %3 = load i64, ptr %__i.addr.i, align 8
  store i64 %3, ptr %.atomictmp.i, align 8
  switch i32 %2, label %monotonic.i [
    i32 3, label %release.i
    i32 5, label %seqcst.i
  ]

monotonic.i:                                      ; preds = %invoke.cont.i
  %4 = load i64, ptr %.atomictmp.i, align 8
  store atomic i64 %4, ptr %this1.i monotonic, align 8
  br label %_ZNSt13__atomic_baseImE5storeEmSt12memory_order.exit

release.i:                                        ; preds = %invoke.cont.i
  %5 = load i64, ptr %.atomictmp.i, align 8
  store atomic i64 %5, ptr %this1.i release, align 8
  br label %_ZNSt13__atomic_baseImE5storeEmSt12memory_order.exit

seqcst.i:                                         ; preds = %invoke.cont.i
  %6 = load i64, ptr %.atomictmp.i, align 8
  store atomic i64 %6, ptr %this1.i seq_cst, align 8
  br label %_ZNSt13__atomic_baseImE5storeEmSt12memory_order.exit

terminate.lpad.i:                                 ; preds = %entry
  %7 = landingpad { ptr, i32 }
          catch ptr null
  %8 = extractvalue { ptr, i32 } %7, 0
  call void @__clang_call_terminate(ptr %8) #11
  unreachable

_ZNSt13__atomic_baseImE5storeEmSt12memory_order.exit: ; preds = %seqcst.i, %release.i, %monotonic.i
  %9 = load i64, ptr %__i.addr, align 8
  ret i64 %9
}

; Function Attrs: mustprogress uwtable
define void @_ZN7rocksdb25SemiStructuredUniqueIdGen5ResetEv(ptr noundef nonnull align 8 dereferenceable(32) %this) #0 align 2 {
entry:
  %this.addr = alloca ptr, align 8
  store ptr %this, ptr %this.addr, align 8
  %this1 = load ptr, ptr %this.addr, align 8
  %call = call noundef i64 @_ZN7rocksdb4port12GetProcessIDEv()
  %saved_process_id_ = getelementptr inbounds %"class.rocksdb::SemiStructuredUniqueIdGen", ptr %this1, i32 0, i32 3
  store i64 %call, ptr %saved_process_id_, align 8
  %base_upper_ = getelementptr inbounds %"class.rocksdb::SemiStructuredUniqueIdGen", ptr %this1, i32 0, i32 0
  %base_lower_ = getelementptr inbounds %"class.rocksdb::SemiStructuredUniqueIdGen", ptr %this1, i32 0, i32 1
  call void @_ZN7rocksdb19GenerateRawUniqueIdEPmS0_b(ptr noundef %base_upper_, ptr noundef %base_lower_, i1 noundef zeroext false)
  %counter_ = getelementptr inbounds %"class.rocksdb::SemiStructuredUniqueIdGen", ptr %this1, i32 0, i32 2
  %call2 = call noundef i64 @_ZNSt13__atomic_baseImEaSEm(ptr noundef nonnull align 8 dereferenceable(8) %counter_, i64 noundef 0) #4
  ret void
}