; Function Attrs: mustprogress uwtable
define void @_ZN7rocksdb25SemiStructuredUniqueIdGen5ResetEv(ptr noundef nonnull align 8 dereferenceable(32) initializes((24, 32)) %this) local_unnamed_addr #0 align 2 personality ptr @__gxx_personality_v0 {
entry:
  %call = tail call noundef i64 @_ZN7rocksdb4port12GetProcessIDEv()
  %saved_process_id_ = getelementptr inbounds nuw i8, ptr %this, i64 24
  store i64 %call, ptr %saved_process_id_, align 8
  %base_lower_ = getelementptr inbounds nuw i8, ptr %this, i64 8
  tail call void @_ZN7rocksdb19GenerateRawUniqueIdEPmS0_b(ptr noundef nonnull %this, ptr noundef nonnull %base_lower_, i1 noundef zeroext false)
  %counter_ = getelementptr inbounds nuw i8, ptr %this, i64 16
  store atomic i64 0, ptr %counter_ seq_cst, align 8
  ret void
}